target datalayout = "e-m:e-p270:32:32-p271:32:32-p272:64:64-i64:64-i128:128-f80:128-n8:16:32:64-S128"
target triple = "x86_64-unknown-linux-gnu"

%"class.icu_75::UTF16CollationIterator" = type { %"class.icu_75::CollationIterator.base", ptr, ptr, ptr }
%"class.icu_75::CollationIterator.base" = type <{ %"class.icu_75::UObject", ptr, ptr, %"class.icu_75::CollationIterator::CEBuffer", i32, [4 x i8], ptr, i32, i8 }>
%"class.icu_75::UObject" = type { ptr }
%"class.icu_75::CollationIterator::CEBuffer" = type { i32, %"class.icu_75::MaybeStackArray.0" }
%"class.icu_75::MaybeStackArray.0" = type { ptr, i32, i8, [40 x i64] }
%"class.icu_75::FCDUTF16CollationIterator" = type <{ %"class.icu_75::UTF16CollationIterator", ptr, ptr, ptr, ptr, ptr, %"class.icu_75::UnicodeString", i8, [7 x i8] }>
%"class.icu_75::UnicodeString" = type { %"class.icu_75::Replaceable", %"union.icu_75::UnicodeString::StackBufferOrFields" }
%"class.icu_75::Replaceable" = type { %"class.icu_75::UObject" }
%"union.icu_75::UnicodeString::StackBufferOrFields" = type { %struct.anon.1, [32 x i8] }
%struct.anon.1 = type { i16, i32, i32, ptr }

; Function Attrs: mustprogress uwtable
define noundef zeroext i1 @_ZNK6icu_7525FCDUTF16CollationIteratoreqERKNS_17CollationIteratorE(ptr noundef nonnull align 8 dereferenceable(521) %this, ptr noundef nonnull align 8 dereferenceable(389) %other) unnamed_addr #1 align 2 {
entry:
  %retval = alloca i1, align 1
  %this.addr = alloca ptr, align 8
  %other.addr = alloca ptr, align 8
  %o = alloca ptr, align 8
  store ptr %this, ptr %this.addr, align 8
  store ptr %other, ptr %other.addr, align 8
  %this1 = load ptr, ptr %this.addr, align 8
  %0 = load ptr, ptr %other.addr, align 8
  %call = call noundef zeroext i1 @_ZNK6icu_7517CollationIteratoreqERKS0_(ptr noundef nonnull align 8 dereferenceable(389) %this1, ptr noundef nonnull align 8 dereferenceable(389) %0)
  br i1 %call, label %if.end, label %if.then

if.then:                                          ; preds = %entry
  store i1 false, ptr %retval, align 1
  br label %return

if.end:                                           ; preds = %entry
  %1 = load ptr, ptr %other.addr, align 8
  store ptr %1, ptr %o, align 8
  %checkDir = getelementptr inbounds %"class.icu_75::FCDUTF16CollationIterator", ptr %this1, i32 0, i32 7
  %2 = load i8, ptr %checkDir, align 8
  %conv = sext i8 %2 to i32
  %3 = load ptr, ptr %o, align 8
  %checkDir2 = getelementptr inbounds %"class.icu_75::FCDUTF16CollationIterator", ptr %3, i32 0, i32 7
  %4 = load i8, ptr %checkDir2, align 8
  %conv3 = sext i8 %4 to i32
  %cmp = icmp ne i32 %conv, %conv3
  br i1 %cmp, label %if.then4, label %if.end5

if.then4:                                         ; preds = %if.end
  store i1 false, ptr %retval, align 1
  br label %return

if.end5:                                          ; preds = %if.end
  %checkDir6 = getelementptr inbounds %"class.icu_75::FCDUTF16CollationIterator", ptr %this1, i32 0, i32 7
  %5 = load i8, ptr %checkDir6, align 8
  %conv7 = sext i8 %5 to i32
  %cmp8 = icmp eq i32 %conv7, 0
  br i1 %cmp8, label %land.lhs.true, label %if.end17

land.lhs.true:                                    ; preds = %if.end5
  %start = getelementptr inbounds %"class.icu_75::UTF16CollationIterator", ptr %this1, i32 0, i32 1
  %6 = load ptr, ptr %start, align 8
  %segmentStart = getelementptr inbounds %"class.icu_75::FCDUTF16CollationIterator", ptr %this1, i32 0, i32 2
  %7 = load ptr, ptr %segmentStart, align 8
  %cmp9 = icmp eq ptr %6, %7
  %conv10 = zext i1 %cmp9 to i32
  %8 = load ptr, ptr %o, align 8
  %start11 = getelementptr inbounds %"class.icu_75::UTF16CollationIterator", ptr %8, i32 0, i32 1
  %9 = load ptr, ptr %start11, align 8
  %10 = load ptr, ptr %o, align 8
  %segmentStart12 = getelementptr inbounds %"class.icu_75::FCDUTF16CollationIterator", ptr %10, i32 0, i32 2
  %11 = load ptr, ptr %segmentStart12, align 8
  %cmp13 = icmp eq ptr %9, %11
  %conv14 = zext i1 %cmp13 to i32
  %cmp15 = icmp ne i32 %conv10, %conv14
  br i1 %cmp15, label %if.then16, label %if.end17

if.then16:                                        ; preds = %land.lhs.true
  store i1 false, ptr %retval, align 1
  br label %return

if.end17:                                         ; preds = %land.lhs.true, %if.end5
  %checkDir18 = getelementptr inbounds %"class.icu_75::FCDUTF16CollationIterator", ptr %this1, i32 0, i32 7
  %12 = load i8, ptr %checkDir18, align 8
  %conv19 = sext i8 %12 to i32
  %cmp20 = icmp ne i32 %conv19, 0
  br i1 %cmp20, label %if.then24, label %lor.lhs.false

lor.lhs.false:                                    ; preds = %if.end17
  %start21 = getelementptr inbounds %"class.icu_75::UTF16CollationIterator", ptr %this1, i32 0, i32 1
  %13 = load ptr, ptr %start21, align 8
  %segmentStart22 = getelementptr inbounds %"class.icu_75::FCDUTF16CollationIterator", ptr %this1, i32 0, i32 2
  %14 = load ptr, ptr %segmentStart22, align 8
  %cmp23 = icmp eq ptr %13, %14
  br i1 %cmp23, label %if.then24, label %if.else

if.then24:                                        ; preds = %lor.lhs.false, %if.end17
  %pos = getelementptr inbounds %"class.icu_75::UTF16CollationIterator", ptr %this1, i32 0, i32 2
  %15 = load ptr, ptr %pos, align 8
  %rawStart = getelementptr inbounds %"class.icu_75::FCDUTF16CollationIterator", ptr %this1, i32 0, i32 1
  %16 = load ptr, ptr %rawStart, align 8
  %sub.ptr.lhs.cast = ptrtoint ptr %15 to i64
  %sub.ptr.rhs.cast = ptrtoint ptr %16 to i64
  %sub.ptr.sub = sub i64 %sub.ptr.lhs.cast, %sub.ptr.rhs.cast
  %sub.ptr.div = sdiv exact i64 %sub.ptr.sub, 2
  %17 = load ptr, ptr %o, align 8
  %pos25 = getelementptr inbounds %"class.icu_75::UTF16CollationIterator", ptr %17, i32 0, i32 2
  %18 = load ptr, ptr %pos25, align 8
  %19 = load ptr, ptr %o, align 8
  %rawStart26 = getelementptr inbounds %"class.icu_75::FCDUTF16CollationIterator", ptr %19, i32 0, i32 1
  %20 = load ptr, ptr %rawStart26, align 8
  %sub.ptr.lhs.cast27 = ptrtoint ptr %18 to i64
  %sub.ptr.rhs.cast28 = ptrtoint ptr %20 to i64
  %sub.ptr.sub29 = sub i64 %sub.ptr.lhs.cast27, %sub.ptr.rhs.cast28
  %sub.ptr.div30 = sdiv exact i64 %sub.ptr.sub29, 2
  %cmp31 = icmp eq i64 %sub.ptr.div, %sub.ptr.div30
  store i1 %cmp31, ptr %retval, align 1
  br label %return

if.else:                                          ; preds = %lor.lhs.false
  %segmentStart32 = getelementptr inbounds %"class.icu_75::FCDUTF16CollationIterator", ptr %this1, i32 0, i32 2
  %21 = load ptr, ptr %segmentStart32, align 8
  %rawStart33 = getelementptr inbounds %"class.icu_75::FCDUTF16CollationIterator", ptr %this1, i32 0, i32 1
  %22 = load ptr, ptr %rawStart33, align 8
  %sub.ptr.lhs.cast34 = ptrtoint ptr %21 to i64
  %sub.ptr.rhs.cast35 = ptrtoint ptr %22 to i64
  %sub.ptr.sub36 = sub i64 %sub.ptr.lhs.cast34, %sub.ptr.rhs.cast35
  %sub.ptr.div37 = sdiv exact i64 %sub.ptr.sub36, 2
  %23 = load ptr, ptr %o, align 8
  %segmentStart38 = getelementptr inbounds %"class.icu_75::FCDUTF16CollationIterator", ptr %23, i32 0, i32 2
  %24 = load ptr, ptr %segmentStart38, align 8
  %25 = load ptr, ptr %o, align 8
  %rawStart39 = getelementptr inbounds %"class.icu_75::FCDUTF16CollationIterator", ptr %25, i32 0, i32 1
  %26 = load ptr, ptr %rawStart39, align 8
  %sub.ptr.lhs.cast40 = ptrtoint ptr %24 to i64
  %sub.ptr.rhs.cast41 = ptrtoint ptr %26 to i64
  %sub.ptr.sub42 = sub i64 %sub.ptr.lhs.cast40, %sub.ptr.rhs.cast41
  %sub.ptr.div43 = sdiv exact i64 %sub.ptr.sub42, 2
  %cmp44 = icmp eq i64 %sub.ptr.div37, %sub.ptr.div43
  br i1 %cmp44, label %land.rhs, label %land.end

land.rhs:                                         ; preds = %if.else
  %pos45 = getelementptr inbounds %"class.icu_75::UTF16CollationIterator", ptr %this1, i32 0, i32 2
  %27 = load ptr, ptr %pos45, align 8
  %start46 = getelementptr inbounds %"class.icu_75::UTF16CollationIterator", ptr %this1, i32 0, i32 1
  %28 = load ptr, ptr %start46, align 8
  %sub.ptr.lhs.cast47 = ptrtoint ptr %27 to i64
  %sub.ptr.rhs.cast48 = ptrtoint ptr %28 to i64
  %sub.ptr.sub49 = sub i64 %sub.ptr.lhs.cast47, %sub.ptr.rhs.cast48
  %sub.ptr.div50 = sdiv exact i64 %sub.ptr.sub49, 2
  %29 = load ptr, ptr %o, align 8
  %pos51 = getelementptr inbounds %"class.icu_75::UTF16CollationIterator", ptr %29, i32 0, i32 2
  %30 = load ptr, ptr %pos51, align 8
  %31 = load ptr, ptr %o, align 8
  %start52 = getelementptr inbounds %"class.icu_75::UTF16CollationIterator", ptr %31, i32 0, i32 1
  %32 = load ptr, ptr %start52, align 8
  %sub.ptr.lhs.cast53 = ptrtoint ptr %30 to i64
  %sub.ptr.rhs.cast54 = ptrtoint ptr %32 to i64
  %sub.ptr.sub55 = sub i64 %sub.ptr.lhs.cast53, %sub.ptr.rhs.cast54
  %sub.ptr.div56 = sdiv exact i64 %sub.ptr.sub55, 2
  %cmp57 = icmp eq i64 %sub.ptr.div50, %sub.ptr.div56
  br label %land.end

land.end:                                         ; preds = %land.rhs, %if.else
  %33 = phi i1 [ false, %if.else ], [ %cmp57, %land.rhs ]
  store i1 %33, ptr %retval, align 1
  br label %return

return:                                           ; preds = %land.end, %if.then24, %if.then16, %if.then4, %if.then
  %34 = load i1, ptr %retval, align 1
  ret i1 %34
}