; Function Attrs: mustprogress uwtable
define noundef zeroext i1 @_ZNK6icu_7525FCDUTF16CollationIteratoreqERKNS_17CollationIteratorE(ptr noundef nonnull align 8 dereferenceable(521) %this, ptr noundef nonnull align 8 dereferenceable(389) %other) unnamed_addr #1 align 2 {
entry:
  %call = tail call noundef zeroext i1 @_ZNK6icu_7517CollationIteratoreqERKS0_(ptr noundef nonnull align 8 dereferenceable(389) %this, ptr noundef nonnull align 8 dereferenceable(389) %other)
  br i1 %call, label %if.end, label %return

if.end:                                           ; preds = %entry
  %checkDir = getelementptr inbounds i8, ptr %this, i64 520
  %0 = load i8, ptr %checkDir, align 8
  %checkDir2 = getelementptr inbounds i8, ptr %other, i64 520
  %1 = load i8, ptr %checkDir2, align 8
  %cmp.not = icmp eq i8 %0, %1
  br i1 %cmp.not, label %if.end5, label %return

if.end5:                                          ; preds = %if.end
  %cmp8 = icmp eq i8 %0, 0
  br i1 %cmp8, label %land.lhs.true, label %if.then24

land.lhs.true:                                    ; preds = %if.end5
  %start = getelementptr inbounds i8, ptr %this, i64 392
  %2 = load ptr, ptr %start, align 8
  %segmentStart = getelementptr inbounds i8, ptr %this, i64 424
  %3 = load ptr, ptr %segmentStart, align 8
  %cmp9 = icmp eq ptr %2, %3
  %start11 = getelementptr inbounds i8, ptr %other, i64 392
  %4 = load ptr, ptr %start11, align 8
  %segmentStart12 = getelementptr inbounds i8, ptr %other, i64 424
  %5 = load ptr, ptr %segmentStart12, align 8
  %6 = icmp ne ptr %4, %5
  %cmp15.not = xor i1 %cmp9, %6
  br i1 %cmp15.not, label %lor.lhs.false, label %return

lor.lhs.false:                                    ; preds = %land.lhs.true
  br i1 %cmp9, label %if.then24, label %if.else

if.then24:                                        ; preds = %if.end5, %lor.lhs.false
  %pos = getelementptr inbounds i8, ptr %this, i64 400
  %7 = load ptr, ptr %pos, align 8
  %rawStart = getelementptr inbounds i8, ptr %this, i64 416
  %8 = load ptr, ptr %rawStart, align 8
  %sub.ptr.lhs.cast = ptrtoint ptr %7 to i64
  %sub.ptr.rhs.cast = ptrtoint ptr %8 to i64
  %sub.ptr.sub = sub i64 %sub.ptr.lhs.cast, %sub.ptr.rhs.cast
  %rawStart26 = getelementptr inbounds i8, ptr %other, i64 416
  %9 = load ptr, ptr %rawStart26, align 8
  br label %return.sink.split

if.else:                                          ; preds = %lor.lhs.false
  %rawStart33 = getelementptr inbounds i8, ptr %this, i64 416
  %10 = load ptr, ptr %rawStart33, align 8
  %sub.ptr.lhs.cast34 = ptrtoint ptr %3 to i64
  %sub.ptr.rhs.cast35 = ptrtoint ptr %10 to i64
  %sub.ptr.sub36 = sub i64 %sub.ptr.lhs.cast34, %sub.ptr.rhs.cast35
  %rawStart39 = getelementptr inbounds i8, ptr %other, i64 416
  %11 = load ptr, ptr %rawStart39, align 8
  %sub.ptr.lhs.cast40 = ptrtoint ptr %5 to i64
  %sub.ptr.rhs.cast41 = ptrtoint ptr %11 to i64
  %sub.ptr.sub42 = sub i64 %sub.ptr.lhs.cast40, %sub.ptr.rhs.cast41
  %cmp44 = icmp eq i64 %sub.ptr.sub36, %sub.ptr.sub42
  br i1 %cmp44, label %land.rhs, label %return

land.rhs:                                         ; preds = %if.else
  %pos45 = getelementptr inbounds i8, ptr %this, i64 400
  %12 = load ptr, ptr %pos45, align 8
  %sub.ptr.lhs.cast47 = ptrtoint ptr %12 to i64
  %sub.ptr.rhs.cast48 = ptrtoint ptr %2 to i64
  %sub.ptr.sub49 = sub i64 %sub.ptr.lhs.cast47, %sub.ptr.rhs.cast48
  br label %return.sink.split

return.sink.split:                                ; preds = %if.then24, %land.rhs
  %.sink = phi ptr [ %4, %land.rhs ], [ %9, %if.then24 ]
  %sub.ptr.sub49.sink = phi i64 [ %sub.ptr.sub49, %land.rhs ], [ %sub.ptr.sub, %if.then24 ]
  %.sink11.in = getelementptr inbounds i8, ptr %other, i64 400
  %.sink11 = load ptr, ptr %.sink11.in, align 8
  %sub.ptr.lhs.cast53 = ptrtoint ptr %.sink11 to i64
  %sub.ptr.rhs.cast54 = ptrtoint ptr %.sink to i64
  %sub.ptr.sub55 = sub i64 %sub.ptr.lhs.cast53, %sub.ptr.rhs.cast54
  %cmp57 = icmp eq i64 %sub.ptr.sub49.sink, %sub.ptr.sub55
  br label %return

return:                                           ; preds = %return.sink.split, %if.else, %land.lhs.true, %if.end, %entry
  %retval.0 = phi i1 [ false, %entry ], [ false, %if.end ], [ false, %land.lhs.true ], [ false, %if.else ], [ %cmp57, %return.sink.split ]
  ret i1 %retval.0
}